target datalayout = "e-m:e-p270:32:32-p271:32:32-p272:64:64-i64:64-i128:128-f80:128-n8:16:32:64-S128"
target triple = "x86_64-pc-linux-gnu"

%struct.GetBitContext = type { ptr, ptr, i32, i32, i32 }

; Function Attrs: alwaysinline nounwind willreturn memory(none) uwtable
define internal i32 @av_bswap32(i32 noundef %0) #5 {
  %2 = alloca i32, align 4
  store i32 %0, ptr %2, align 4, !tbaa !11
  %3 = load i32, ptr %2, align 4, !tbaa !11
  %4 = shl i32 %3, 8
  %5 = and i32 %4, 65280
  %6 = load i32, ptr %2, align 4, !tbaa !11
  %7 = lshr i32 %6, 8
  %8 = and i32 %7, 255
  %9 = or i32 %5, %8
  %10 = shl i32 %9, 16
  %11 = load i32, ptr %2, align 4, !tbaa !11
  %12 = lshr i32 %11, 16
  %13 = shl i32 %12, 8
  %14 = and i32 %13, 65280
  %15 = load i32, ptr %2, align 4, !tbaa !11
  %16 = lshr i32 %15, 16
  %17 = lshr i32 %16, 8
  %18 = and i32 %17, 255
  %19 = or i32 %14, %18
  %20 = or i32 %10, %19
  ret i32 %20
}

; Function Attrs: inlinehint nounwind uwtable
define internal i32 @show_bits(ptr noundef %0, i32 noundef %1) #6 {
  %3 = alloca ptr, align 8
  %4 = alloca i32, align 4
  %5 = alloca i32, align 4
  %6 = alloca i32, align 4
  %7 = alloca i32, align 4
  store ptr %0, ptr %3, align 8, !tbaa !196
  store i32 %1, ptr %4, align 4, !tbaa !11
  call void @llvm.lifetime.start.p0(i64 4, ptr %5) #11
  call void @llvm.lifetime.start.p0(i64 4, ptr %6) #11
  %8 = load ptr, ptr %3, align 8, !tbaa !196
  %9 = getelementptr inbounds nuw %struct.GetBitContext, ptr %8, i32 0, i32 2
  %10 = load i32, ptr %9, align 8, !tbaa !202
  store i32 %10, ptr %6, align 4, !tbaa !11
  call void @llvm.lifetime.start.p0(i64 4, ptr %7) #11
  %11 = load ptr, ptr %3, align 8, !tbaa !196
  %12 = getelementptr inbounds nuw %struct.GetBitContext, ptr %11, i32 0, i32 0
  %13 = load ptr, ptr %12, align 8, !tbaa !198
  %14 = load i32, ptr %6, align 4, !tbaa !11
  %15 = lshr i32 %14, 3
  %16 = zext i32 %15 to i64
  %17 = getelementptr inbounds nuw i8, ptr %13, i64 %16
  %18 = load i32, ptr %17, align 1, !tbaa !32
  %19 = call i32 @av_bswap32(i32 noundef %18) #13
  %20 = load i32, ptr %6, align 4, !tbaa !11
  %21 = and i32 %20, 7
  %22 = shl i32 %19, %21
  %23 = lshr i32 %22, 0
  store i32 %23, ptr %7, align 4, !tbaa !11
  %24 = load i32, ptr %7, align 4, !tbaa !11
  %25 = load i32, ptr %4, align 4, !tbaa !11
  %26 = sub nsw i32 32, %25
  %27 = lshr i32 %24, %26
  store i32 %27, ptr %5, align 4, !tbaa !11
  %28 = load i32, ptr %5, align 4, !tbaa !11
  call void @llvm.lifetime.end.p0(i64 4, ptr %7) #11
  call void @llvm.lifetime.end.p0(i64 4, ptr %6) #11
  call void @llvm.lifetime.end.p0(i64 4, ptr %5) #11
  ret i32 %28
}

; Function Attrs: nounwind uwtable
define internal i32 @cbs_h265_payload_extension_present(ptr noundef %0, i32 noundef %1, i32 noundef %2) #0 {
  %4 = alloca ptr, align 8
  %5 = alloca i32, align 4
  %6 = alloca i32, align 4
  %7 = alloca i32, align 4
  store ptr %0, ptr %4, align 8, !tbaa !196
  store i32 %1, ptr %5, align 4, !tbaa !11
  store i32 %2, ptr %6, align 4, !tbaa !11
  call void @llvm.lifetime.start.p0(i64 4, ptr %7) #11
  %8 = load i32, ptr %5, align 4, !tbaa !11
  %9 = mul i32 %8, 8
  %10 = load i32, ptr %6, align 4, !tbaa !11
  %11 = sub i32 %9, %10
  store i32 %11, ptr %7, align 4, !tbaa !11
  %12 = load i32, ptr %7, align 4, !tbaa !11
  %13 = icmp sgt i32 %12, 0
  br i1 %13, label %14, label %31

14:                                               ; preds = %3
  %15 = load i32, ptr %7, align 4, !tbaa !11
  %16 = icmp sgt i32 %15, 7
  br i1 %16, label %29, label %17

17:                                               ; preds = %14
  %18 = load ptr, ptr %4, align 8, !tbaa !196
  %19 = load i32, ptr %7, align 4, !tbaa !11
  %20 = call i32 @show_bits(ptr noundef %18, i32 noundef %19)
  %21 = zext i32 %20 to i64
  %22 = load i32, ptr %7, align 4, !tbaa !11
  %23 = sub nsw i32 %22, 1
  %24 = zext i32 %23 to i64
  %25 = shl i64 1, %24
  %26 = sub i64 %25, 1
  %27 = and i64 %21, %26
  %28 = icmp ne i64 %27, 0
  br label %29

29:                                               ; preds = %17, %14
  %30 = phi i1 [ true, %14 ], [ %28, %17 ]
  br label %31

31:                                               ; preds = %29, %3
  %32 = phi i1 [ false, %3 ], [ %30, %29 ]
  %33 = zext i1 %32 to i32
  call void @llvm.lifetime.end.p0(i64 4, ptr %7) #11
  ret i32 %33
}