; Function Attrs: mustprogress nofree norecurse nosync nounwind willreturn memory(read, inaccessiblemem: none) uwtable
define internal fastcc range(i32 0, 2) i32 @cbs_h265_payload_extension_present(ptr noundef readonly captures(none) %0, i32 noundef %1, i32 noundef %2) unnamed_addr #5 {
  %4 = shl i32 %1, 3
  %5 = sub i32 %4, %2
  %6 = icmp sgt i32 %5, 0
  br i1 %6, label %7, label %27

7:                                                ; preds = %3
  %8 = icmp samesign ugt i32 %5, 7
  br i1 %8, label %27, label %9

9:                                                ; preds = %7
  %.val = load ptr, ptr %0, align 8, !tbaa !56
  %10 = getelementptr i8, ptr %0, i64 16
  %.val6 = load i32, ptr %10, align 8, !tbaa !60
  %11 = lshr i32 %.val6, 3
  %12 = zext nneg i32 %11 to i64
  %13 = getelementptr inbounds nuw i8, ptr %.val, i64 %12
  %14 = load i32, ptr %13, align 1, !tbaa !25
  %15 = tail call i32 @llvm.bswap.i32(i32 %14)
  %16 = and i32 %.val6, 7
  %17 = shl i32 %15, %16
  %18 = sub nuw nsw i32 32, %5
  %19 = lshr i32 %17, %18
  %20 = zext nneg i32 %19 to i64
  %21 = add nsw i32 %5, -1
  %22 = zext nneg i32 %21 to i64
  %notmask = shl nsw i64 -1, %22
  %23 = xor i64 %notmask, -1
  %24 = and i64 %20, %23
  %25 = icmp ne i64 %24, 0
  %26 = zext i1 %25 to i32
  br label %27

27:                                               ; preds = %7, %9, %3
  %28 = phi i32 [ 0, %3 ], [ 1, %7 ], [ %26, %9 ]
  ret i32 %28
}